target datalayout = "e-m:e-p270:32:32-p271:32:32-p272:64:64-i64:64-i128:128-f80:128-n8:16:32:64-S128"
target triple = "x86_64-pc-linux-gnu"

%"class.zmq::poller_base_t" = type { ptr, %"class.zmq::clock_t", %"class.std::multimap", %"class.zmq::atomic_counter_t" }
%"class.zmq::clock_t" = type { i64, i64 }
%"class.std::multimap" = type { %"class.std::_Rb_tree" }
%"class.std::_Rb_tree" = type { %"struct.std::_Rb_tree<unsigned long, std::pair<const unsigned long, zmq::poller_base_t::timer_info_t>, std::_Select1st<std::pair<const unsigned long, zmq::poller_base_t::timer_info_t>>, std::less<unsigned long>>::_Rb_tree_impl" }
%"struct.std::_Rb_tree<unsigned long, std::pair<const unsigned long, zmq::poller_base_t::timer_info_t>, std::_Select1st<std::pair<const unsigned long, zmq::poller_base_t::timer_info_t>>, std::less<unsigned long>>::_Rb_tree_impl" = type { [8 x i8], %"struct.std::_Rb_tree_header" }
%"struct.std::_Rb_tree_header" = type { %"struct.std::_Rb_tree_node_base", i64 }
%"struct.std::_Rb_tree_node_base" = type { i32, ptr, ptr, ptr }
%"class.zmq::atomic_counter_t" = type { %"struct.std::atomic", [4 x i8] }
%"struct.std::atomic" = type { %"struct.std::__atomic_base" }
%"struct.std::__atomic_base" = type { i32 }

; Function Attrs: alwaysinline mustprogress nounwind uwtable
define linkonce_odr noundef i32 @_ZNSt13__atomic_baseIjE9fetch_subEjSt12memory_order(ptr noundef nonnull align 4 dereferenceable(4) %0, i32 noundef %1, i32 noundef %2) #10 comdat align 2 {
  %4 = alloca ptr, align 8
  %5 = alloca i32, align 4
  %6 = alloca i32, align 4
  %7 = alloca i32, align 4
  %8 = alloca i32, align 4
  store ptr %0, ptr %4, align 8, !tbaa !96
  store i32 %1, ptr %5, align 4, !tbaa !16
  store i32 %2, ptr %6, align 4, !tbaa !98
  %9 = load ptr, ptr %4, align 8
  %10 = getelementptr inbounds nuw %"struct.std::__atomic_base", ptr %9, i32 0, i32 0
  %11 = load i32, ptr %6, align 4, !tbaa !98
  %12 = load i32, ptr %5, align 4, !tbaa !16
  store i32 %12, ptr %7, align 4, !tbaa !16
  switch i32 %11, label %13 [
    i32 1, label %16
    i32 2, label %16
    i32 3, label %19
    i32 4, label %22
    i32 5, label %25
  ]

13:                                               ; preds = %3
  %14 = load i32, ptr %7, align 4
  %15 = atomicrmw sub ptr %10, i32 %14 monotonic, align 4
  store i32 %15, ptr %8, align 4
  br label %28

16:                                               ; preds = %3, %3
  %17 = load i32, ptr %7, align 4
  %18 = atomicrmw sub ptr %10, i32 %17 acquire, align 4
  store i32 %18, ptr %8, align 4
  br label %28

19:                                               ; preds = %3
  %20 = load i32, ptr %7, align 4
  %21 = atomicrmw sub ptr %10, i32 %20 release, align 4
  store i32 %21, ptr %8, align 4
  br label %28

22:                                               ; preds = %3
  %23 = load i32, ptr %7, align 4
  %24 = atomicrmw sub ptr %10, i32 %23 acq_rel, align 4
  store i32 %24, ptr %8, align 4
  br label %28

25:                                               ; preds = %3
  %26 = load i32, ptr %7, align 4
  %27 = atomicrmw sub ptr %10, i32 %26 seq_cst, align 4
  store i32 %27, ptr %8, align 4
  br label %28

28:                                               ; preds = %25, %22, %19, %16, %13
  %29 = load i32, ptr %8, align 4, !tbaa !16
  ret i32 %29
}

; Function Attrs: alwaysinline mustprogress nounwind uwtable
define linkonce_odr noundef i32 @_ZNSt13__atomic_baseIjE9fetch_addEjSt12memory_order(ptr noundef nonnull align 4 dereferenceable(4) %0, i32 noundef %1, i32 noundef %2) #10 comdat align 2 {
  %4 = alloca ptr, align 8
  %5 = alloca i32, align 4
  %6 = alloca i32, align 4
  %7 = alloca i32, align 4
  %8 = alloca i32, align 4
  store ptr %0, ptr %4, align 8, !tbaa !96
  store i32 %1, ptr %5, align 4, !tbaa !16
  store i32 %2, ptr %6, align 4, !tbaa !98
  %9 = load ptr, ptr %4, align 8
  %10 = getelementptr inbounds nuw %"struct.std::__atomic_base", ptr %9, i32 0, i32 0
  %11 = load i32, ptr %6, align 4, !tbaa !98
  %12 = load i32, ptr %5, align 4, !tbaa !16
  store i32 %12, ptr %7, align 4, !tbaa !16
  switch i32 %11, label %13 [
    i32 1, label %16
    i32 2, label %16
    i32 3, label %19
    i32 4, label %22
    i32 5, label %25
  ]

13:                                               ; preds = %3
  %14 = load i32, ptr %7, align 4
  %15 = atomicrmw add ptr %10, i32 %14 monotonic, align 4
  store i32 %15, ptr %8, align 4
  br label %28

16:                                               ; preds = %3, %3
  %17 = load i32, ptr %7, align 4
  %18 = atomicrmw add ptr %10, i32 %17 acquire, align 4
  store i32 %18, ptr %8, align 4
  br label %28

19:                                               ; preds = %3
  %20 = load i32, ptr %7, align 4
  %21 = atomicrmw add ptr %10, i32 %20 release, align 4
  store i32 %21, ptr %8, align 4
  br label %28

22:                                               ; preds = %3
  %23 = load i32, ptr %7, align 4
  %24 = atomicrmw add ptr %10, i32 %23 acq_rel, align 4
  store i32 %24, ptr %8, align 4
  br label %28

25:                                               ; preds = %3
  %26 = load i32, ptr %7, align 4
  %27 = atomicrmw add ptr %10, i32 %26 seq_cst, align 4
  store i32 %27, ptr %8, align 4
  br label %28

28:                                               ; preds = %25, %22, %19, %16, %13
  %29 = load i32, ptr %8, align 4, !tbaa !16
  ret i32 %29
}

; Function Attrs: mustprogress nounwind uwtable
define linkonce_odr noundef zeroext i1 @_ZN3zmq16atomic_counter_t3subEj(ptr noundef nonnull align 8 dereferenceable(4) %0, i32 noundef %1) #0 comdat align 2 {
  %3 = alloca ptr, align 8
  %4 = alloca i32, align 4
  %5 = alloca i32, align 4
  store ptr %0, ptr %3, align 8, !tbaa !14
  store i32 %1, ptr %4, align 4, !tbaa !16
  %6 = load ptr, ptr %3, align 8
  call void @llvm.lifetime.start.p0(i64 4, ptr %5) #16
  %7 = getelementptr inbounds nuw %"class.zmq::atomic_counter_t", ptr %6, i32 0, i32 0
  %8 = load i32, ptr %4, align 4, !tbaa !16
  %9 = call noundef i32 @_ZNSt13__atomic_baseIjE9fetch_subEjSt12memory_order(ptr noundef nonnull align 4 dereferenceable(4) %7, i32 noundef %8, i32 noundef 4) #16
  store i32 %9, ptr %5, align 4, !tbaa !16
  %10 = load i32, ptr %5, align 4, !tbaa !16
  %11 = load i32, ptr %4, align 4, !tbaa !16
  %12 = sub i32 %10, %11
  %13 = icmp ne i32 %12, 0
  call void @llvm.lifetime.end.p0(i64 4, ptr %5) #16
  ret i1 %13
}

; Function Attrs: mustprogress nounwind uwtable
define linkonce_odr noundef i32 @_ZN3zmq16atomic_counter_t3addEj(ptr noundef nonnull align 8 dereferenceable(4) %0, i32 noundef %1) #0 comdat align 2 {
  %3 = alloca ptr, align 8
  %4 = alloca i32, align 4
  %5 = alloca i32, align 4
  store ptr %0, ptr %3, align 8, !tbaa !14
  store i32 %1, ptr %4, align 4, !tbaa !16
  %6 = load ptr, ptr %3, align 8
  call void @llvm.lifetime.start.p0(i64 4, ptr %5) #16
  %7 = getelementptr inbounds nuw %"class.zmq::atomic_counter_t", ptr %6, i32 0, i32 0
  %8 = load i32, ptr %4, align 4, !tbaa !16
  %9 = call noundef i32 @_ZNSt13__atomic_baseIjE9fetch_addEjSt12memory_order(ptr noundef nonnull align 4 dereferenceable(4) %7, i32 noundef %8, i32 noundef 4) #16
  store i32 %9, ptr %5, align 4, !tbaa !16
  %10 = load i32, ptr %5, align 4, !tbaa !16
  call void @llvm.lifetime.end.p0(i64 4, ptr %5) #16
  ret i32 %10
}

; Function Attrs: mustprogress nounwind uwtable
define void @_ZN3zmq13poller_base_t11adjust_loadEi(ptr noundef nonnull align 8 dereferenceable(80) %0, i32 noundef %1) #0 align 2 {
  %3 = alloca ptr, align 8
  %4 = alloca i32, align 4
  store ptr %0, ptr %3, align 8, !tbaa !3
  store i32 %1, ptr %4, align 4, !tbaa !16
  %5 = load ptr, ptr %3, align 8
  %6 = load i32, ptr %4, align 4, !tbaa !16
  %7 = icmp sgt i32 %6, 0
  br i1 %7, label %8, label %12

8:                                                ; preds = %2
  %9 = getelementptr inbounds nuw %"class.zmq::poller_base_t", ptr %5, i32 0, i32 3
  %10 = load i32, ptr %4, align 4, !tbaa !16
  %11 = call noundef i32 @_ZN3zmq16atomic_counter_t3addEj(ptr noundef nonnull align 8 dereferenceable(4) %9, i32 noundef %10) #16
  br label %21

12:                                               ; preds = %2
  %13 = load i32, ptr %4, align 4, !tbaa !16
  %14 = icmp slt i32 %13, 0
  br i1 %14, label %15, label %20

15:                                               ; preds = %12
  %16 = getelementptr inbounds nuw %"class.zmq::poller_base_t", ptr %5, i32 0, i32 3
  %17 = load i32, ptr %4, align 4, !tbaa !16
  %18 = sub nsw i32 0, %17
  %19 = call noundef zeroext i1 @_ZN3zmq16atomic_counter_t3subEj(ptr noundef nonnull align 8 dereferenceable(4) %16, i32 noundef %18) #16
  br label %20

20:                                               ; preds = %15, %12
  br label %21

21:                                               ; preds = %20, %8
  ret void
}