; Function Attrs: mustprogress nofree norecurse nounwind willreturn memory(argmem: readwrite) uwtable
define void @_ZN3zmq13poller_base_t11adjust_loadEi(ptr noundef nonnull align 8 captures(none) dereferenceable(80) %0, i32 noundef %1) local_unnamed_addr #1 align 2 {
  %3 = icmp sgt i32 %1, 0
  br i1 %3, label %4, label %7

4:                                                ; preds = %2
  %5 = getelementptr inbounds nuw i8, ptr %0, i64 72
  %6 = atomicrmw add ptr %5, i32 %1 acq_rel, align 4
  br label %13

7:                                                ; preds = %2
  %8 = icmp slt i32 %1, 0
  br i1 %8, label %9, label %13

9:                                                ; preds = %7
  %10 = getelementptr inbounds nuw i8, ptr %0, i64 72
  %11 = sub nsw i32 0, %1
  %12 = atomicrmw sub ptr %10, i32 %11 acq_rel, align 4
  br label %13

13:                                               ; preds = %7, %9, %4
  ret void
}